target datalayout = "e-m:e-p270:32:32-p271:32:32-p272:64:64-i64:64-i128:128-f80:128-n8:16:32:64-S128"
target triple = "x86_64-pc-linux-gnu"

%struct.t_merge_sid = type { i32, i32, i32 }

; Function Attrs: mustprogress nounwind uwtable
define internal noundef i32 @_ZL7ms_compPKvS0_(ptr noundef %0, ptr noundef %1) #2 {
  %3 = alloca i32, align 4
  %4 = alloca ptr, align 8
  %5 = alloca ptr, align 8
  %6 = alloca ptr, align 8
  %7 = alloca ptr, align 8
  %8 = alloca i32, align 4
  store ptr %0, ptr %4, align 8
  store ptr %1, ptr %5, align 8
  %9 = load ptr, ptr %4, align 8
  store ptr %9, ptr %6, align 8
  %10 = load ptr, ptr %5, align 8
  store ptr %10, ptr %7, align 8
  %11 = load ptr, ptr %6, align 8
  %12 = getelementptr inbounds %struct.t_merge_sid, ptr %11, i32 0, i32 0
  %13 = load i32, ptr %12, align 4
  %14 = load ptr, ptr %7, align 8
  %15 = getelementptr inbounds %struct.t_merge_sid, ptr %14, i32 0, i32 0
  %16 = load i32, ptr %15, align 4
  %17 = sub nsw i32 %13, %16
  store i32 %17, ptr %8, align 4
  %18 = load i32, ptr %8, align 4
  %19 = icmp eq i32 %18, 0
  br i1 %19, label %20, label %28

20:                                               ; preds = %2
  %21 = load ptr, ptr %6, align 8
  %22 = getelementptr inbounds %struct.t_merge_sid, ptr %21, i32 0, i32 1
  %23 = load i32, ptr %22, align 4
  %24 = load ptr, ptr %7, align 8
  %25 = getelementptr inbounds %struct.t_merge_sid, ptr %24, i32 0, i32 1
  %26 = load i32, ptr %25, align 4
  %27 = sub nsw i32 %23, %26
  store i32 %27, ptr %3, align 4
  br label %30

28:                                               ; preds = %2
  %29 = load i32, ptr %8, align 4
  store i32 %29, ptr %3, align 4
  br label %30

30:                                               ; preds = %28, %20
  %31 = load i32, ptr %3, align 4
  ret i32 %31
}