; Function Attrs: mustprogress nofree norecurse nosync nounwind willreturn memory(argmem: read) uwtable
define internal noundef i32 @_ZL7ms_compPKvS0_(ptr nocapture noundef readonly %0, ptr nocapture noundef readonly %1) #3 {
  %3 = load i32, ptr %0, align 4
  %4 = load i32, ptr %1, align 4
  %5 = sub nsw i32 %3, %4
  %6 = icmp eq i32 %5, 0
  br i1 %6, label %7, label %13

7:                                                ; preds = %2
  %8 = getelementptr inbounds i8, ptr %0, i64 4
  %9 = load i32, ptr %8, align 4
  %10 = getelementptr inbounds i8, ptr %1, i64 4
  %11 = load i32, ptr %10, align 4
  %12 = sub nsw i32 %9, %11
  br label %13

13:                                               ; preds = %2, %7
  %.0 = phi i32 [ %12, %7 ], [ %5, %2 ]
  ret i32 %.0
}